Certificate:
    Data:
        Version: 3 (0x2)
        Serial Number: 4097 (0x1001)
        Signature Algorithm: md5WithRSAEncryption
        Issuer: C=US, ST=Utah, L=Salt Lake City, O=MSD, OU=TLSlite Project, CN=MSD Certificate Authority/emailAddress=u1541723@umail.utah.edu
        Validity
            Not Before: Mar 18 21:45:59 2025 GMT
            Not After : Mar 18 21:45:59 2026 GMT
        Subject: C=US, ST=Utah, O=MSD, OU=TLSlite Project, CN=TLSlite Client/emailAddress=u1541723@umail.utah.edu
        Subject Public Key Info:
            Public Key Algorithm: rsaEncryption
                Public-Key: (4096 bit)
                Modulus:
                    00:84:33:7b:7a:d2:f9:8f:60:07:f3:c7:84:03:43:
                    5b:3e:f4:80:88:38:3d:f8:eb:15:fd:74:c3:02:27:
                    ab:a4:b3:ec:94:a2:d7:01:b1:f4:84:f9:7c:b4:af:
                    1f:39:22:5c:45:c0:77:62:b5:93:5a:04:ae:a3:5a:
                    5d:0c:ca:6a:74:1c:bd:9e:c4:bc:98:cb:b4:c6:c4:
                    7f:fc:2a:29:9a:45:2f:c5:c0:9a:6b:ed:90:ed:2e:
                    75:f8:55:d6:17:dc:f0:09:e7:4e:a2:1c:f7:7f:a2:
                    6a:81:c5:ed:f3:b7:a7:5e:63:58:5f:94:91:bc:2f:
                    7d:79:7b:b1:33:8f:98:0b:f7:b8:b0:89:41:bf:47:
                    47:d9:c9:7d:52:df:6d:73:ad:d4:0a:2a:f3:a8:da:
                    36:dc:67:bb:a8:cd:e8:9e:42:db:87:d9:91:34:20:
                    09:02:ed:3c:c0:2f:31:c4:4e:92:26:92:8d:98:67:
                    c9:52:54:f2:03:e3:4d:93:3d:65:31:04:1c:be:6a:
                    05:77:84:da:30:bd:5d:6e:df:e7:c8:a0:3d:e6:33:
                    6a:06:a2:73:5a:45:40:34:74:d6:d1:a6:84:50:bf:
                    93:5c:c7:22:1c:5e:78:ce:99:aa:44:22:42:f9:7a:
                    9e:ee:25:30:32:3b:fc:9e:59:c8:8a:06:87:42:5b:
                    03:b7:60:f7:d0:81:2a:6f:ee:b0:8c:80:5e:6b:15:
                    74:85:87:49:70:36:a3:a3:ea:84:63:a9:a9:4b:ae:
                    a0:18:90:b7:df:f3:2b:14:12:cd:e5:4c:5c:09:71:
                    78:d6:55:50:3e:74:4d:d5:88:ce:54:f9:22:d5:ae:
                    1b:54:03:cb:60:17:d3:66:e4:c6:e4:1f:07:2d:1a:
                    ac:0f:08:22:39:2f:6c:a3:9c:25:9d:1b:39:d2:48:
                    9e:5b:8f:f9:00:10:47:a1:8c:f6:3e:1c:a2:4d:fb:
                    54:e5:dc:bc:12:7d:b0:2f:7d:8c:fa:9a:ed:b0:8e:
                    fa:a3:65:83:af:47:88:cd:cf:e1:af:ba:99:88:01:
                    8c:3e:22:88:32:f7:bd:de:25:2a:0b:3e:99:9b:8b:
                    f9:6b:38:a3:ee:01:23:fb:ae:21:f6:7c:61:75:9c:
                    65:95:93:fe:8c:ac:50:69:ba:33:06:34:0c:69:07:
                    0e:4c:1e:07:f7:cb:3f:cb:b0:c8:bb:c0:a1:1e:0a:
                    50:ac:57:78:39:15:e3:88:96:49:f7:db:0a:e5:26:
                    e9:36:ca:09:63:2c:90:93:de:11:d5:f0:d1:41:ea:
                    41:b2:42:30:31:c3:d0:38:98:29:20:e3:fe:1c:56:
                    de:b6:3a:92:71:cd:0a:9d:ad:45:1e:7b:a6:da:f6:
                    0a:55:5d
                Exponent: 65537 (0x10001)
        X509v3 extensions:
            X509v3 Basic Constraints: 
                CA:FALSE
            Netscape Comment: 
                OpenSSL Generated Certificate
            X509v3 Subject Key Identifier: 
                87:81:54:56:16:4B:F2:16:22:1F:E7:44:DA:E5:3C:BF:86:60:E5:C2
            X509v3 Authority Key Identifier: 
                keyid:9B:B4:46:34:75:C7:76:B1:44:A1:FF:B9:D8:84:E4:30:F0:F4:C2:36
                DirName:/C=US/ST=Utah/L=Salt Lake City/O=MSD/OU=TLSlite Project/CN=MSD Certificate Authority/emailAddress=u1541723@umail.utah.edu
                serial:5A:05:0A:BA:38:42:CD:9D:DC:4F:84:30:A1:87:0C:84:71:93:18:6E
    Signature Algorithm: md5WithRSAEncryption
    Signature Value:
        83:40:a4:bd:71:23:a8:36:ef:59:89:e7:50:54:40:74:9e:82:
        75:83:31:9a:42:7a:c9:af:dd:6e:87:c3:4b:34:1f:71:22:89:
        37:ef:98:05:aa:df:0b:bc:3a:2f:e9:32:11:44:ca:08:85:51:
        28:51:75:31:84:10:fa:71:1b:81:ac:44:fb:d5:85:d4:a8:67:
        b3:5a:31:02:de:96:dc:f8:2c:5a:6d:a2:5b:e8:5a:72:bc:01:
        b5:e3:bc:28:bc:8e:bd:31:90:a9:e5:33:12:34:c2:03:27:69:
        64:d1:c8:f7:f3:d9:52:e4:03:06:0b:73:68:dc:32:3b:cd:42:
        1c:94:a0:d5:27:52:0b:b5:81:48:4b:de:5d:bb:78:a1:53:73:
        50:aa:28:86:3b:eb:3d:0a:b8:a4:1d:a9:e0:78:00:b3:3a:f4:
        b6:e7:19:b5:9b:35:da:8e:e6:2b:45:fa:14:6b:da:0e:4d:a9:
        e8:ce:5a:d9:94:71:bb:b4:40:d5:23:cd:60:f5:65:a5:9c:4e:
        a7:f9:f0:7b:ca:30:e1:55:f1:75:8a:30:27:04:bb:8c:38:c4:
        6d:32:cb:dd:01:1f:e0:98:7e:cf:09:77:27:3c:20:9c:85:05:
        f8:e0:74:12:c0:b8:4c:55:d0:f7:90:38:5f:d1:0f:09:c1:ef:
        66:07:eb:55:6c:cd:e7:9d:de:7a:a4:87:6e:4c:9e:19:e5:25:
        31:53:eb:2b:9c:e6:7a:93:41:68:a3:28:85:7e:e4:9f:6b:9f:
        ef:d1:67:f1:46:50:8d:7e:4f:6e:72:2d:38:4e:d5:27:43:ed:
        cf:dc:b5:b6:cb:90:c0:49:ff:43:db:1b:2f:c4:54:e9:04:52:
        6d:bb:f2:3d:94:00:ad:da:06:fb:7a:a4:e9:b6:f0:20:35:15:
        f8:61:2c:4c:2f:62:98:44:f4:76:ea:a4:e2:59:88:78:9f:d2:
        d5:89:b3:c4:ba:d9:9c:e5:f1:a1:fe:8c:42:16:ff:89:64:ec:
        ff:05:26:5a:82:1f:98:79:a1:31:c7:d4:08:03:a8:0f:48:f0:
        6a:22:52:5d:5d:3c:a4:f3:ad:45:50:b8:c6:68:c2:79:f4:ac:
        6a:c9:8b:ec:5b:9c:59:b2:70:17:16:ea:ee:ad:4a:5e:de:fd:
        95:f6:1b:50:53:3a:8f:63:bb:28:8e:3d:20:f0:35:32:77:85:
        be:b0:c6:80:a8:1d:a8:b8:b5:1f:d3:d4:42:b4:b9:4c:a3:34:
        4f:1c:4a:dc:be:b1:25:fc:00:6e:44:5f:6d:2b:56:d6:32:2d:
        5f:73:2c:47:00:cd:ce:73:1e:39:fe:2f:2d:2b:af:23:08:54:
        ff:42:97:e7:35:bd:18:91
-----BEGIN CERTIFICATE-----
MIIG9jCCBN6gAwIBAgICEAEwDQYJKoZIhvcNAQEEBQAwgakxCzAJBgNVBAYTAlVT
MQ0wCwYDVQQIDARVdGFoMRcwFQYDVQQHDA5TYWx0IExha2UgQ2l0eTEMMAoGA1UE
CgwDTVNEMRgwFgYDVQQLDA9UTFNsaXRlIFByb2plY3QxIjAgBgNVBAMMGU1TRCBD
ZXJ0aWZpY2F0ZSBBdXRob3JpdHkxJjAkBgkqhkiG9w0BCQEWF3UxNTQxNzIzQHVt
YWlsLnV0YWguZWR1MB4XDTI1MDMxODIxNDU1OVoXDTI2MDMxODIxNDU1OVowgYUx
CzAJBgNVBAYTAlVTMQ0wCwYDVQQIDARVdGFoMQwwCgYDVQQKDANNU0QxGDAWBgNV
BAsMD1RMU2xpdGUgUHJvamVjdDEXMBUGA1UEAwwOVExTbGl0ZSBDbGllbnQxJjAk
BgkqhkiG9w0BCQEWF3UxNTQxNzIzQHVtYWlsLnV0YWguZWR1MIICIjANBgkqhkiG
9w0BAQEFAAOCAg8AMIICCgKCAgEAhDN7etL5j2AH88eEA0NbPvSAiDg9+OsV/XTD
AierpLPslKLXAbH0hPl8tK8fOSJcRcB3YrWTWgSuo1pdDMpqdBy9nsS8mMu0xsR/
/CopmkUvxcCaa+2Q7S51+FXWF9zwCedOohz3f6JqgcXt87enXmNYX5SRvC99eXux
M4+YC/e4sIlBv0dH2cl9Ut9tc63UCirzqNo23Ge7qM3onkLbh9mRNCAJAu08wC8x
xE6SJpKNmGfJUlTyA+NNkz1lMQQcvmoFd4TaML1dbt/nyKA95jNqBqJzWkVANHTW
0aaEUL+TXMciHF54zpmqRCJC+Xqe7iUwMjv8nlnIigaHQlsDt2D30IEqb+6wjIBe
axV0hYdJcDajo+qEY6mpS66gGJC33/MrFBLN5UxcCXF41lVQPnRN1YjOVPki1a4b
VAPLYBfTZuTG5B8HLRqsDwgiOS9so5wlnRs50kieW4/5ABBHoYz2PhyiTftU5dy8
En2wL32M+prtsI76o2WDr0eIzc/hr7qZiAGMPiKIMve93iUqCz6Zm4v5azij7gEj
+64h9nxhdZxllZP+jKxQabozBjQMaQcOTB4H98s/y7DIu8ChHgpQrFd4ORXjiJZJ
99sK5SbpNsoJYyyQk94R1fDRQepBskIwMcPQOJgpIOP+HFbetjqScc0Kna1FHnum
2vYKVV0CAwEAAaOCAUgwggFEMAkGA1UdEwQCMAAwLAYJYIZIAYb4QgENBB8WHU9w
ZW5TU0wgR2VuZXJhdGVkIENlcnRpZmljYXRlMB0GA1UdDgQWBBSHgVRWFkvyFiIf
50Ta5Ty/hmDlwjCB6QYDVR0jBIHhMIHegBSbtEY0dcd2sUSh/7nYhOQw8PTCNqGB
r6SBrDCBqTELMAkGA1UEBhMCVVMxDTALBgNVBAgMBFV0YWgxFzAVBgNVBAcMDlNh
bHQgTGFrZSBDaXR5MQwwCgYDVQQKDANNU0QxGDAWBgNVBAsMD1RMU2xpdGUgUHJv
amVjdDEiMCAGA1UEAwwZTVNEIENlcnRpZmljYXRlIEF1dGhvcml0eTEmMCQGCSqG
SIb3DQEJARYXdTE1NDE3MjNAdW1haWwudXRhaC5lZHWCFFoFCro4Qs2d3E+EMKGH
DIRxkxhuMA0GCSqGSIb3DQEBBAUAA4ICAQCDQKS9cSOoNu9ZiedQVEB0noJ1gzGa
QnrJr91uh8NLNB9xIok375gFqt8LvDov6TIRRMoIhVEoUXUxhBD6cRuBrET71YXU
qGezWjEC3pbc+CxabaJb6FpyvAG147wovI69MZCp5TMSNMIDJ2lk0cj389lS5AMG
C3No3DI7zUIclKDVJ1ILtYFIS95du3ihU3NQqiiGO+s9CrikHangeACzOvS25xm1
mzXajuYrRfoUa9oOTanozlrZlHG7tEDVI81g9WWlnE6n+fB7yjDhVfF1ijAnBLuM
OMRtMsvdAR/gmH7PCXcnPCCchQX44HQSwLhMVdD3kDhf0Q8Jwe9mB+tVbM3nnd56
pIduTJ4Z5SUxU+srnOZ6k0FooyiFfuSfa5/v0WfxRlCNfk9uci04TtUnQ+3P3LW2
y5DASf9D2xsvxFTpBFJtu/I9lACt2gb7eqTptvAgNRX4YSxML2KYRPR26qTiWYh4
n9LVibPEutmc5fGh/oxCFv+JZOz/BSZagh+YeaExx9QIA6gPSPBqIlJdXTyk861F
ULjGaMJ59KxqyYvsW5xZsnAXFururUpe3v2V9htQUzqPY7sojj0g8DUyd4W+sMaA
qB2ouLUf09RCtLlMozRPHErcvrEl/ABuRF9tK1bWMi1fcyxHAM3Ocx45/i8tK68j
CFT/QpfnNb0YkQ==
-----END CERTIFICATE-----
