Certificate:
    Data:
        Version: 3 (0x2)
        Serial Number: 4096 (0x1000)
        Signature Algorithm: md5WithRSAEncryption
        Issuer: C=US, ST=Utah, L=Salt Lake City, O=MSD, OU=TLSlite Project, CN=MSD Certificate Authority/emailAddress=u1541723@umail.utah.edu
        Validity
            Not Before: Mar 18 21:30:52 2025 GMT
            Not After : Mar 18 21:30:52 2026 GMT
        Subject: C=US, ST=Utah, O=MSD, OU=TLSlite Project, CN=TLSlite Server/emailAddress=u1541723@umail.utah.edu
        Subject Public Key Info:
            Public Key Algorithm: rsaEncryption
                Public-Key: (4096 bit)
                Modulus:
                    00:c3:24:7f:fb:be:d8:8c:17:a0:5d:0e:9a:30:29:
                    8e:ca:56:65:cb:ca:4d:da:92:f8:5c:0f:4e:d3:54:
                    c7:08:3c:91:25:66:7d:43:20:1d:db:c8:be:de:86:
                    65:33:c7:e9:7e:89:f2:9c:09:64:05:0a:40:1f:e6:
                    25:2b:a9:fc:4b:12:be:71:9c:ba:c2:49:25:df:84:
                    38:fc:dd:db:6f:05:04:4c:8b:40:cc:b4:1a:35:46:
                    b0:64:d5:8c:ea:de:ab:ef:05:15:26:b9:76:51:33:
                    7b:f9:a5:ea:8b:ce:c5:77:1b:c8:64:20:e5:72:98:
                    63:11:18:33:89:ef:a7:42:90:54:a3:6d:0c:a4:c9:
                    f4:7b:11:59:9b:d4:12:d8:a6:30:90:5f:14:25:cb:
                    b4:55:50:d3:96:7a:4c:a6:9f:57:9e:66:78:01:1d:
                    05:28:f0:33:1b:39:64:62:27:8f:08:11:94:cb:98:
                    cb:d0:4e:8a:61:27:81:2c:a2:c8:5b:c3:ef:20:c0:
                    5a:78:8a:02:fe:53:e8:63:9f:eb:75:31:f2:ed:35:
                    42:f1:56:68:24:cc:cd:28:60:0d:fa:70:48:7c:4b:
                    cc:a9:3f:77:6d:da:6c:6e:d2:66:ca:7c:72:f7:df:
                    f3:dc:40:34:b6:93:af:b5:c8:72:14:56:5d:be:e9:
                    20:e8:3b:da:4d:cd:e3:a6:ab:99:74:ab:62:f8:a0:
                    3d:4c:1e:c0:eb:94:b5:70:56:25:b4:b8:d8:83:60:
                    8a:dc:4d:cf:cc:9d:09:fb:bb:f5:7d:28:4c:ff:6f:
                    6c:eb:f4:e0:2e:c2:70:ec:95:b3:8a:f7:08:aa:d0:
                    48:e6:36:37:d8:63:11:0a:98:58:de:d6:c7:f2:85:
                    39:95:39:60:12:60:c3:ef:aa:b7:a1:d7:93:54:83:
                    64:3b:51:07:0b:3b:1c:bd:de:85:a1:dd:87:ad:aa:
                    ad:96:16:3b:ae:55:68:c2:73:a3:90:41:17:5b:ea:
                    fb:ba:57:82:f1:7e:72:37:ce:b6:1d:6d:00:d7:b5:
                    b4:19:6d:dc:d0:55:64:07:4f:c0:7f:b6:7e:13:45:
                    71:dc:53:fe:8b:2b:c9:3a:41:7c:f7:1f:0d:3f:83:
                    3f:b2:c4:36:50:87:28:c4:c9:f3:9f:4f:5a:d5:53:
                    0f:a4:4a:45:ee:6b:14:b4:11:84:fe:93:71:1a:22:
                    67:f1:49:b0:bb:0f:77:e6:a5:e8:d7:cd:f2:38:7a:
                    e1:2e:da:3f:02:08:94:ca:99:f7:df:f8:92:d8:dc:
                    1a:58:0e:60:32:cf:70:b3:80:24:a0:87:c0:0f:41:
                    25:81:e0:1d:d7:17:a2:f0:3e:06:6d:73:80:2a:ad:
                    f4:b0:6b
                Exponent: 65537 (0x10001)
        X509v3 extensions:
            X509v3 Basic Constraints: 
                CA:FALSE
            Netscape Comment: 
                OpenSSL Generated Certificate
            X509v3 Subject Key Identifier: 
                6E:B7:9C:F9:A0:98:32:BA:7C:CF:16:E7:A4:D0:9E:D1:1D:CE:3C:2A
            X509v3 Authority Key Identifier: 
                keyid:9B:B4:46:34:75:C7:76:B1:44:A1:FF:B9:D8:84:E4:30:F0:F4:C2:36
                DirName:/C=US/ST=Utah/L=Salt Lake City/O=MSD/OU=TLSlite Project/CN=MSD Certificate Authority/emailAddress=u1541723@umail.utah.edu
                serial:5A:05:0A:BA:38:42:CD:9D:DC:4F:84:30:A1:87:0C:84:71:93:18:6E
    Signature Algorithm: md5WithRSAEncryption
    Signature Value:
        79:26:c3:fb:44:1b:7c:ad:ff:73:a5:73:6f:a6:c2:5a:01:02:
        3f:f3:a6:5a:45:0e:72:28:37:59:c9:be:0f:56:67:55:03:f4:
        c4:c0:0e:a0:e0:65:c8:8d:dc:81:6c:df:f2:b1:87:86:50:51:
        58:cb:07:72:8b:93:90:a5:6d:24:00:59:7e:73:1f:8a:3e:5d:
        c3:58:e4:31:4b:65:44:1e:83:6a:85:01:f5:b7:6c:4e:5e:38:
        81:7b:0e:fc:fb:33:77:22:2f:72:3a:72:23:8c:cb:d2:7a:00:
        fb:02:1d:f7:bf:1e:1e:29:f7:95:16:99:3f:1a:31:f9:9c:e3:
        28:56:8c:0c:03:02:17:40:a3:c6:cf:96:90:af:aa:c3:35:a8:
        4f:d0:59:f7:64:cd:cb:39:2e:0f:1b:49:05:a4:ae:77:9f:ce:
        32:26:af:71:f1:d7:4e:43:c7:54:22:e9:fe:dd:2e:63:af:02:
        bb:25:46:73:ee:e1:25:48:12:84:dd:4f:6d:a6:c0:09:ce:cc:
        50:1d:a6:45:80:5f:b5:43:ed:91:64:7c:e4:a6:d8:d8:61:44:
        7b:14:26:9c:ea:56:b4:29:f9:bb:be:da:38:8f:6a:6c:ae:ce:
        bb:20:e0:90:e9:dc:82:5f:af:9c:56:3b:38:61:53:52:38:49:
        ec:98:e1:d3:9a:57:7f:6b:5d:e0:1d:45:0d:59:75:ed:b3:bd:
        cb:44:f8:2a:69:a6:30:6e:32:d3:05:43:64:64:50:09:c5:61:
        cd:88:c4:d2:34:c6:67:df:9b:aa:52:51:3d:2f:13:fa:7a:3a:
        93:e3:8a:07:6a:95:8d:e3:a0:39:44:b1:3e:05:f0:9f:88:ff:
        fe:8f:f6:36:ba:68:90:5d:02:3c:d1:15:5d:c6:38:1b:16:64:
        d8:38:90:7b:8e:47:04:50:65:b0:70:a8:58:dc:d5:00:2e:6e:
        18:25:49:1b:44:78:19:b4:71:d3:30:da:92:6a:bd:cd:50:94:
        42:d2:fd:33:88:c8:65:5c:3e:44:9b:e4:e9:93:7d:52:37:94:
        61:e2:39:f6:85:b0:5b:2e:67:87:f6:d9:ac:40:5f:46:e3:80:
        17:43:df:0d:9f:5b:47:ff:af:8d:a8:f7:c6:a0:94:63:d3:8f:
        bb:8c:5a:bc:6e:94:99:bb:eb:52:6c:62:93:07:6a:be:b5:42:
        5e:42:16:f9:79:e3:8a:ba:2a:58:07:5d:83:cd:72:c5:fa:65:
        7d:52:b9:09:17:56:bb:c1:04:c2:49:4c:67:84:16:61:31:a9:
        98:3f:92:8b:d8:ad:73:99:d9:59:81:4a:fa:6d:71:8f:de:32:
        4e:c9:4c:e7:66:c9:e0:38
-----BEGIN CERTIFICATE-----
MIIG9jCCBN6gAwIBAgICEAAwDQYJKoZIhvcNAQEEBQAwgakxCzAJBgNVBAYTAlVT
MQ0wCwYDVQQIDARVdGFoMRcwFQYDVQQHDA5TYWx0IExha2UgQ2l0eTEMMAoGA1UE
CgwDTVNEMRgwFgYDVQQLDA9UTFNsaXRlIFByb2plY3QxIjAgBgNVBAMMGU1TRCBD
ZXJ0aWZpY2F0ZSBBdXRob3JpdHkxJjAkBgkqhkiG9w0BCQEWF3UxNTQxNzIzQHVt
YWlsLnV0YWguZWR1MB4XDTI1MDMxODIxMzA1MloXDTI2MDMxODIxMzA1MlowgYUx
CzAJBgNVBAYTAlVTMQ0wCwYDVQQIDARVdGFoMQwwCgYDVQQKDANNU0QxGDAWBgNV
BAsMD1RMU2xpdGUgUHJvamVjdDEXMBUGA1UEAwwOVExTbGl0ZSBTZXJ2ZXIxJjAk
BgkqhkiG9w0BCQEWF3UxNTQxNzIzQHVtYWlsLnV0YWguZWR1MIICIjANBgkqhkiG
9w0BAQEFAAOCAg8AMIICCgKCAgEAwyR/+77YjBegXQ6aMCmOylZly8pN2pL4XA9O
01THCDyRJWZ9QyAd28i+3oZlM8fpfonynAlkBQpAH+YlK6n8SxK+cZy6wkkl34Q4
/N3bbwUETItAzLQaNUawZNWM6t6r7wUVJrl2UTN7+aXqi87FdxvIZCDlcphjERgz
ie+nQpBUo20MpMn0exFZm9QS2KYwkF8UJcu0VVDTlnpMpp9XnmZ4AR0FKPAzGzlk
YiePCBGUy5jL0E6KYSeBLKLIW8PvIMBaeIoC/lPoY5/rdTHy7TVC8VZoJMzNKGAN
+nBIfEvMqT93bdpsbtJmynxy99/z3EA0tpOvtchyFFZdvukg6DvaTc3jpquZdKti
+KA9TB7A65S1cFYltLjYg2CK3E3PzJ0J+7v1fShM/29s6/TgLsJw7JWzivcIqtBI
5jY32GMRCphY3tbH8oU5lTlgEmDD76q3odeTVINkO1EHCzscvd6Fod2HraqtlhY7
rlVownOjkEEXW+r7uleC8X5yN862HW0A17W0GW3c0FVkB0/Af7Z+E0Vx3FP+iyvJ
OkF89x8NP4M/ssQ2UIcoxMnzn09a1VMPpEpF7msUtBGE/pNxGiJn8Umwuw935qXo
183yOHrhLto/AgiUypn33/iS2NwaWA5gMs9ws4AkoIfAD0ElgeAd1xei8D4GbXOA
Kq30sGsCAwEAAaOCAUgwggFEMAkGA1UdEwQCMAAwLAYJYIZIAYb4QgENBB8WHU9w
ZW5TU0wgR2VuZXJhdGVkIENlcnRpZmljYXRlMB0GA1UdDgQWBBRut5z5oJgyunzP
Fuek0J7RHc48KjCB6QYDVR0jBIHhMIHegBSbtEY0dcd2sUSh/7nYhOQw8PTCNqGB
r6SBrDCBqTELMAkGA1UEBhMCVVMxDTALBgNVBAgMBFV0YWgxFzAVBgNVBAcMDlNh
bHQgTGFrZSBDaXR5MQwwCgYDVQQKDANNU0QxGDAWBgNVBAsMD1RMU2xpdGUgUHJv
amVjdDEiMCAGA1UEAwwZTVNEIENlcnRpZmljYXRlIEF1dGhvcml0eTEmMCQGCSqG
SIb3DQEJARYXdTE1NDE3MjNAdW1haWwudXRhaC5lZHWCFFoFCro4Qs2d3E+EMKGH
DIRxkxhuMA0GCSqGSIb3DQEBBAUAA4ICAQB5JsP7RBt8rf9zpXNvpsJaAQI/86Za
RQ5yKDdZyb4PVmdVA/TEwA6g4GXIjdyBbN/ysYeGUFFYywdyi5OQpW0kAFl+cx+K
Pl3DWOQxS2VEHoNqhQH1t2xOXjiBew78+zN3Ii9yOnIjjMvSegD7Ah33vx4eKfeV
Fpk/GjH5nOMoVowMAwIXQKPGz5aQr6rDNahP0Fn3ZM3LOS4PG0kFpK53n84yJq9x
8ddOQ8dUIun+3S5jrwK7JUZz7uElSBKE3U9tpsAJzsxQHaZFgF+1Q+2RZHzkptjY
YUR7FCac6la0Kfm7vto4j2psrs67IOCQ6dyCX6+cVjs4YVNSOEnsmOHTmld/a13g
HUUNWXXts73LRPgqaaYwbjLTBUNkZFAJxWHNiMTSNMZn35uqUlE9LxP6ejqT44oH
apWN46A5RLE+BfCfiP/+j/Y2umiQXQI80RVdxjgbFmTYOJB7jkcEUGWwcKhY3NUA
Lm4YJUkbRHgZtHHTMNqSar3NUJRC0v0ziMhlXD5Em+Tpk31SN5Rh4jn2hbBbLmeH
9tmsQF9G44AXQ98Nn1tH/6+NqPfGoJRj04+7jFq8bpSZu+tSbGKTB2q+tUJeQhb5
eeOKuipYB12DzXLF+mV9UrkJF1a7wQTCSUxnhBZhMamYP5KL2K1zmdlZgUr6bXGP
3jJOyUznZsngOA==
-----END CERTIFICATE-----
